target datalayout = "e-m:e-p270:32:32-p271:32:32-p272:64:64-i64:64-i128:128-f80:128-n8:16:32:64-S128"
target triple = "x86_64-pc-linux-gnu"

%"class.std::vector" = type { %"struct.std::_Vector_base" }
%"struct.std::_Vector_base" = type { %"struct.std::_Vector_base<opencc::UTF8StringSliceBase<unsigned char>, std::allocator<opencc::UTF8StringSliceBase<unsigned char>>>::_Vector_impl" }
%"struct.std::_Vector_base<opencc::UTF8StringSliceBase<unsigned char>, std::allocator<opencc::UTF8StringSliceBase<unsigned char>>>::_Vector_impl" = type { %"struct.std::_Vector_base<opencc::UTF8StringSliceBase<unsigned char>, std::allocator<opencc::UTF8StringSliceBase<unsigned char>>>::_Vector_impl_data" }
%"struct.std::_Vector_base<opencc::UTF8StringSliceBase<unsigned char>, std::allocator<opencc::UTF8StringSliceBase<unsigned char>>>::_Vector_impl_data" = type { ptr, ptr, ptr }
%"struct.opencc::PhraseExtract::Signals" = type { i64, double, double, double }
%"class.opencc::PhraseExtract" = type { ptr, i64, i64, i64, i64, %"class.std::function", %"class.std::function", i8, i8, i8, i8, i8, i8, i8, i8, %"class.opencc::UTF8StringSliceBase.3", i64, double, %"class.std::vector", %"class.std::vector", %"class.std::vector", %"class.std::vector", ptr }
%"class.std::function" = type { %"class.std::_Function_base", ptr }
%"class.std::_Function_base" = type { %"union.std::_Any_data", ptr }
%"union.std::_Any_data" = type { %"union.std::_Nocopy_types" }
%"union.std::_Nocopy_types" = type { { i64, i64 } }
%"class.opencc::UTF8StringSliceBase.3" = type { ptr, i64, i64 }

; Function Attrs: mustprogress uwtable
define noundef i64 @_ZNK6opencc13PhraseExtract9FrequencyERKNS_19UTF8StringSliceBaseIhEE(ptr noundef nonnull align 8 dereferenceable(256) %0, ptr noundef nonnull align 8 dereferenceable(10) %1) #4 align 2 {
  %3 = alloca ptr, align 8
  %4 = alloca ptr, align 8
  %5 = alloca i64, align 8
  store ptr %0, ptr %3, align 8
  store ptr %1, ptr %4, align 8
  %6 = load ptr, ptr %3, align 8
  %7 = load ptr, ptr %4, align 8
  %8 = call noundef nonnull align 8 dereferenceable(32) ptr @_ZNK6opencc13PhraseExtract6SignalERKNS_19UTF8StringSliceBaseIhEE(ptr noundef nonnull align 8 dereferenceable(256) %6, ptr noundef nonnull align 8 dereferenceable(10) %7)
  %9 = getelementptr inbounds %"struct.opencc::PhraseExtract::Signals", ptr %8, i32 0, i32 0
  %10 = load i64, ptr %9, align 8
  store i64 %10, ptr %5, align 8
  %11 = load i64, ptr %5, align 8
  ret i64 %11
}

; Function Attrs: mustprogress uwtable
define noundef double @_ZNK6opencc13PhraseExtract14LogProbabilityERKNS_19UTF8StringSliceBaseIhEE(ptr noundef nonnull align 8 dereferenceable(256) %0, ptr noundef nonnull align 8 dereferenceable(10) %1) #4 align 2 {
  %3 = alloca ptr, align 8
  %4 = alloca ptr, align 8
  %5 = alloca i64, align 8
  store ptr %0, ptr %3, align 8
  store ptr %1, ptr %4, align 8
  %6 = load ptr, ptr %3, align 8
  %7 = load ptr, ptr %4, align 8
  %8 = call noundef i64 @_ZNK6opencc13PhraseExtract9FrequencyERKNS_19UTF8StringSliceBaseIhEE(ptr noundef nonnull align 8 dereferenceable(256) %6, ptr noundef nonnull align 8 dereferenceable(10) %7)
  store i64 %8, ptr %5, align 8
  %9 = load i64, ptr %5, align 8
  %10 = uitofp i64 %9 to double
  %11 = call double @log(double noundef %10) #3
  %12 = getelementptr inbounds %"class.opencc::PhraseExtract", ptr %6, i32 0, i32 17
  %13 = load double, ptr %12, align 8
  %14 = fsub double %11, %13
  ret double %14
}

; Function Attrs: mustprogress uwtable
define noundef nonnull align 8 dereferenceable(32) ptr @_ZNK6opencc13PhraseExtract6SignalERKNS_19UTF8StringSliceBaseIhEE(ptr noundef nonnull align 8 dereferenceable(256) %0, ptr noundef nonnull align 8 dereferenceable(10) %1) #4 align 2 {
  %3 = alloca ptr, align 8
  %4 = alloca ptr, align 8
  store ptr %0, ptr %3, align 8
  store ptr %1, ptr %4, align 8
  %5 = load ptr, ptr %3, align 8
  %6 = getelementptr inbounds %"class.opencc::PhraseExtract", ptr %5, i32 0, i32 22
  %7 = load ptr, ptr %6, align 8
  %8 = load ptr, ptr %4, align 8
  %9 = call noundef nonnull align 8 dereferenceable(32) ptr @_ZN6opencc13PhraseExtract8DictType3GetERKNS_19UTF8StringSliceBaseIhEE(ptr noundef nonnull align 8 dereferenceable(112) %7, ptr noundef nonnull align 8 dereferenceable(10) %8)
  ret ptr %9
}

; Function Attrs: mustprogress uwtable
define noundef zeroext i1 @_ZN6opencc13PhraseExtract28DefaultPostCalculationFilterERKS0_RKNS_19UTF8StringSliceBaseIhEE(ptr noundef nonnull align 8 dereferenceable(256) %0, ptr noundef nonnull align 8 dereferenceable(10) %1) #4 align 2 {
  %3 = alloca ptr, align 8
  %4 = alloca ptr, align 8
  %5 = alloca ptr, align 8
  %6 = alloca double, align 8
  %7 = alloca double, align 8
  %8 = alloca double, align 8
  %9 = alloca i8, align 1
  store ptr %0, ptr %3, align 8
  store ptr %1, ptr %4, align 8
  %10 = load ptr, ptr %3, align 8
  %11 = load ptr, ptr %4, align 8
  %12 = call noundef nonnull align 8 dereferenceable(32) ptr @_ZNK6opencc13PhraseExtract6SignalERKNS_19UTF8StringSliceBaseIhEE(ptr noundef nonnull align 8 dereferenceable(256) %10, ptr noundef nonnull align 8 dereferenceable(10) %11)
  store ptr %12, ptr %5, align 8
  %13 = load ptr, ptr %3, align 8
  %14 = load ptr, ptr %4, align 8
  %15 = call noundef double @_ZNK6opencc13PhraseExtract14LogProbabilityERKNS_19UTF8StringSliceBaseIhEE(ptr noundef nonnull align 8 dereferenceable(256) %13, ptr noundef nonnull align 8 dereferenceable(10) %14)
  store double %15, ptr %6, align 8
  %16 = load ptr, ptr %5, align 8
  %17 = getelementptr inbounds %"struct.opencc::PhraseExtract::Signals", ptr %16, i32 0, i32 1
  %18 = load double, ptr %17, align 8
  %19 = load double, ptr %6, align 8
  %20 = fneg double %19
  %21 = call double @llvm.fmuladd.f64(double %20, double 5.000000e-01, double %18)
  store double %21, ptr %7, align 8
  %22 = load ptr, ptr %5, align 8
  %23 = getelementptr inbounds %"struct.opencc::PhraseExtract::Signals", ptr %22, i32 0, i32 3
  %24 = load double, ptr %23, align 8
  %25 = load ptr, ptr %5, align 8
  %26 = getelementptr inbounds %"struct.opencc::PhraseExtract::Signals", ptr %25, i32 0, i32 2
  %27 = load double, ptr %26, align 8
  %28 = fadd double %27, 1.000000e+00
  %29 = fmul double %24, %28
  %30 = call double @sqrt(double noundef %29) #3
  %31 = load double, ptr %6, align 8
  %32 = fneg double %31
  %33 = call double @llvm.fmuladd.f64(double %32, double 8.500000e-01, double %30)
  store double %33, ptr %8, align 8
  %34 = load double, ptr %7, align 8
  %35 = fcmp ogt double %34, 9.000000e+00
  br i1 %35, label %36, label %58

36:                                               ; preds = %2
  %37 = load double, ptr %8, align 8
  %38 = fcmp ogt double %37, 1.100000e+01
  br i1 %38, label %39, label %58

39:                                               ; preds = %36
  %40 = load ptr, ptr %5, align 8
  %41 = getelementptr inbounds %"struct.opencc::PhraseExtract::Signals", ptr %40, i32 0, i32 3
  %42 = load double, ptr %41, align 8
  %43 = fcmp ogt double %42, 5.000000e-01
  br i1 %43, label %44, label %58

44:                                               ; preds = %39
  %45 = load ptr, ptr %5, align 8
  %46 = getelementptr inbounds %"struct.opencc::PhraseExtract::Signals", ptr %45, i32 0, i32 2
  %47 = load double, ptr %46, align 8
  %48 = fcmp ogt double %47, 0.000000e+00
  br i1 %48, label %49, label %58

49:                                               ; preds = %44
  %50 = load ptr, ptr %5, align 8
  %51 = getelementptr inbounds %"struct.opencc::PhraseExtract::Signals", ptr %50, i32 0, i32 3
  %52 = load double, ptr %51, align 8
  %53 = load ptr, ptr %5, align 8
  %54 = getelementptr inbounds %"struct.opencc::PhraseExtract::Signals", ptr %53, i32 0, i32 2
  %55 = load double, ptr %54, align 8
  %56 = fadd double %52, %55
  %57 = fcmp ogt double %56, 3.000000e+00
  br label %58

58:                                               ; preds = %49, %44, %39, %36, %2
  %59 = phi i1 [ false, %44 ], [ false, %39 ], [ false, %36 ], [ false, %2 ], [ %57, %49 ]
  %60 = zext i1 %59 to i8
  store i8 %60, ptr %9, align 1
  %61 = load i8, ptr %9, align 1
  %62 = trunc i8 %61 to i1
  %63 = xor i1 %62, true
  ret i1 %63
}