; Function Attrs: mustprogress uwtable
define noundef zeroext i1 @_ZN6opencc13PhraseExtract28DefaultPostCalculationFilterERKS0_RKNS_19UTF8StringSliceBaseIhEE(ptr nocapture noundef nonnull readonly align 8 dereferenceable(256) %0, ptr noundef nonnull align 8 dereferenceable(10) %1) #3 align 2 {
  %3 = getelementptr inbounds i8, ptr %0, i64 248
  %4 = load ptr, ptr %3, align 8
  %5 = tail call noundef nonnull align 8 dereferenceable(32) ptr @_ZN6opencc13PhraseExtract8DictType3GetERKNS_19UTF8StringSliceBaseIhEE(ptr noundef nonnull align 8 dereferenceable(112) %4, ptr noundef nonnull align 8 dereferenceable(10) %1)
  %6 = load ptr, ptr %3, align 8
  %7 = tail call noundef nonnull align 8 dereferenceable(32) ptr @_ZN6opencc13PhraseExtract8DictType3GetERKNS_19UTF8StringSliceBaseIhEE(ptr noundef nonnull align 8 dereferenceable(112) %6, ptr noundef nonnull align 8 dereferenceable(10) %1)
  %8 = load i64, ptr %7, align 8
  %9 = uitofp i64 %8 to double
  %10 = tail call double @log(double noundef %9) #22
  %11 = getelementptr inbounds i8, ptr %0, i64 144
  %12 = load double, ptr %11, align 8
  %13 = fsub double %10, %12
  %14 = getelementptr inbounds i8, ptr %5, i64 8
  %15 = load double, ptr %14, align 8
  %16 = fneg double %13
  %17 = tail call double @llvm.fmuladd.f64(double %16, double 5.000000e-01, double %15)
  %18 = getelementptr inbounds i8, ptr %5, i64 24
  %19 = load double, ptr %18, align 8
  %20 = getelementptr inbounds i8, ptr %5, i64 16
  %21 = load double, ptr %20, align 8
  %22 = fadd double %21, 1.000000e+00
  %23 = fmul double %19, %22
  %24 = tail call double @sqrt(double noundef %23) #22
  %25 = tail call double @llvm.fmuladd.f64(double %16, double 8.500000e-01, double %24)
  %26 = fcmp ogt double %17, 9.000000e+00
  %27 = fcmp ogt double %25, 1.100000e+01
  %or.cond = select i1 %26, i1 %27, i1 false
  br i1 %or.cond, label %28, label %37

28:                                               ; preds = %2
  %29 = load double, ptr %18, align 8
  %30 = fcmp ogt double %29, 5.000000e-01
  br i1 %30, label %31, label %37

31:                                               ; preds = %28
  %32 = load double, ptr %20, align 8
  %33 = fcmp ogt double %32, 0.000000e+00
  br i1 %33, label %34, label %37

34:                                               ; preds = %31
  %35 = fadd double %29, %32
  %36 = fcmp ule double %35, 3.000000e+00
  br label %37

37:                                               ; preds = %34, %31, %28, %2
  %38 = phi i1 [ true, %31 ], [ true, %28 ], [ true, %2 ], [ %36, %34 ]
  ret i1 %38
}